; Function Attrs: mustprogress uwtable
define void @_ZN3gmx22SelectionOptionStorage12convertValueERKNS_3AnyE(ptr noundef nonnull align 8 dereferenceable(208) %0, ptr noundef nonnull readonly align 8 captures(none) dereferenceable(8) %1) unnamed_addr #1 align 2 {
  %3 = getelementptr inbounds nuw i8, ptr %0, i64 160
  %4 = load ptr, ptr %3, align 8, !tbaa !85
  %5 = load ptr, ptr %1, align 8, !tbaa !36
  %.not.i.i.i.i.i = icmp eq ptr %5, null
  br i1 %.not.i.i.i.i.i, label %18, label %6

6:                                                ; preds = %2
  %7 = load ptr, ptr %5, align 8, !tbaa !12
  %8 = getelementptr inbounds nuw i8, ptr %7, i64 16
  %9 = load ptr, ptr %8, align 8
  %10 = tail call noundef nonnull align 8 dereferenceable(16) ptr %9(ptr noundef nonnull align 8 dereferenceable(8) %5)
  %11 = getelementptr inbounds nuw i8, ptr %10, i64 8
  %12 = load ptr, ptr %11, align 8, !tbaa !111
  %13 = icmp eq ptr %12, @_ZTSNSt7__cxx1112basic_stringIcSt11char_traitsIcESaIcEEE
  br i1 %13, label %_ZNK3gmx3Any4castINSt7__cxx1112basic_stringIcSt11char_traitsIcESaIcEEEEERKT_v.exit, label %14

14:                                               ; preds = %6
  %15 = load i8, ptr %12, align 1, !tbaa !20
  %.not.i.i.i.i = icmp eq i8 %15, 42
  br i1 %.not.i.i.i.i, label %18, label %_ZNK3gmx3Any6isTypeINSt7__cxx1112basic_stringIcSt11char_traitsIcESaIcEEEEEbv.exit.i.i

_ZNK3gmx3Any6isTypeINSt7__cxx1112basic_stringIcSt11char_traitsIcESaIcEEEEEbv.exit.i.i: ; preds = %14
  %16 = tail call i32 @strcmp(ptr noundef nonnull dereferenceable(1) %12, ptr noundef nonnull dereferenceable(53) @_ZTSNSt7__cxx1112basic_stringIcSt11char_traitsIcESaIcEEE) #28
  %17 = icmp eq i32 %16, 0
  br i1 %17, label %_ZNK3gmx3Any4castINSt7__cxx1112basic_stringIcSt11char_traitsIcESaIcEEEEERKT_v.exit, label %18

18:                                               ; preds = %_ZNK3gmx3Any6isTypeINSt7__cxx1112basic_stringIcSt11char_traitsIcESaIcEEEEEbv.exit.i.i, %14, %2
  tail call void @_ZN3gmx8internal13assertHandlerEPKcS2_S2_S2_i(ptr noundef nonnull @.str.21, ptr noundef nonnull @.str.22, ptr noundef nonnull @__PRETTY_FUNCTION__._ZZNK3gmx3Any4castINSt7__cxx1112basic_stringIcSt11char_traitsIcESaIcEEEEERKT_vENKUlvE_clEv, ptr noundef nonnull @.str.23, i32 noundef 190) #29
  unreachable

_ZNK3gmx3Any4castINSt7__cxx1112basic_stringIcSt11char_traitsIcESaIcEEEEERKT_v.exit: ; preds = %6, %_ZNK3gmx3Any6isTypeINSt7__cxx1112basic_stringIcSt11char_traitsIcESaIcEEEEEbv.exit.i.i
  %19 = load ptr, ptr %1, align 8, !tbaa !36
  %20 = getelementptr inbounds nuw i8, ptr %19, i64 8
  tail call void @_ZN3gmx22SelectionOptionManager18convertOptionValueEPNS_22SelectionOptionStorageERKNSt7__cxx1112basic_stringIcSt11char_traitsIcESaIcEEEb(ptr noundef nonnull align 8 dereferenceable(16) %4, ptr noundef nonnull %0, ptr noundef nonnull align 8 dereferenceable(32) %20, i1 noundef zeroext false)
  ret void
}